target datalayout = "e-m:e-p270:32:32-p271:32:32-p272:64:64-i64:64-i128:128-f80:128-n8:16:32:64-S128"
target triple = "x86_64-unknown-linux-gnu"

%class.ptr_vector = type { %class.vector }
%class.vector = type { ptr }
%class.svector = type { %class.vector.0 }
%class.vector.0 = type { ptr }
%class.svector.17 = type { %class.vector.18 }
%class.vector.18 = type { ptr }
%"class.smt::theory" = type <{ ptr, i32, [4 x i8], ptr, ptr, %class.ptr_vector, %class.svector, i32, i8, [3 x i8] }>
%class.symbol = type { ptr }
%class.u_map = type { %class.map.32 }
%class.map.32 = type { %class.table2map.33 }
%class.table2map.33 = type { %class.core_hashtable.34 }
%class.core_hashtable.34 = type <{ ptr, i32, i32, i32, [4 x i8] }>
%class.obj_map.49 = type { %class.core_hashtable.50 }
%class.core_hashtable.50 = type <{ ptr, i32, i32, i32, [4 x i8] }>
%class.ptr_vector.82 = type { %class.vector.83 }
%class.vector.83 = type { ptr }
%class.svector.288 = type { %class.vector.289 }
%class.vector.289 = type { ptr }
%class.obj_map.183 = type { %class.core_hashtable.184 }
%class.core_hashtable.184 = type <{ ptr, i32, i32, i32, [4 x i8] }>
%class.ast_manager = type { %class.reslimit, %class.small_object_allocator, %class.family_manager, %class.parray_manager, %class.dependency_manager, %class.parray_manager.335, %class.ptr_vector.338, i32, i8, %class.ast_table, %class.obj_map.49, %class.id_gen, %class.id_gen, ptr, ptr, ptr, ptr, ptr, i32, i8, [3 x i8], %class.u_map, ptr, i8, i8, ptr, %class.symbol, %class.obj_map.183, ptr }
%class.reslimit = type { %"struct.std::atomic", i8, i64, i64, %class.svector.288, %class.ptr_vector.326 }
%"struct.std::atomic" = type { %"struct.std::__atomic_base" }
%"struct.std::__atomic_base" = type { i32 }
%class.ptr_vector.326 = type { %class.vector.327 }
%class.vector.327 = type { ptr }
%class.small_object_allocator = type { [32 x ptr], [32 x ptr], i64 }
%class.family_manager = type { i32, %class.symbol_table, %class.svector.331 }
%class.symbol_table = type { %class.core_hashtable.328, %class.vector.330, %class.svector.17 }
%class.core_hashtable.328 = type <{ ptr, i32, i32, i32, [4 x i8] }>
%class.vector.330 = type { ptr }
%class.svector.331 = type { %class.vector.332 }
%class.vector.332 = type { ptr }
%class.parray_manager = type { ptr, ptr, %class.ptr_vector.333, %class.ptr_vector.333 }
%class.ptr_vector.333 = type { %class.vector.334 }
%class.vector.334 = type { ptr }
%class.dependency_manager = type { ptr, ptr, %class.ptr_vector.82 }
%class.parray_manager.335 = type { ptr, ptr, %class.ptr_vector.336, %class.ptr_vector.336 }
%class.ptr_vector.336 = type { %class.vector.337 }
%class.vector.337 = type { ptr }
%class.ptr_vector.338 = type { %class.vector.339 }
%class.vector.339 = type { ptr }
%class.ast_table = type { %class.chashtable.340 }
%class.chashtable.340 = type { ptr, i32, i32, i32, i32, i32, i32, i32, ptr, ptr, ptr }
%class.id_gen = type { i32, %class.svector }
%class.scoped_suspend_rlimit = type <{ ptr, i8, [7 x i8] }>

@_ZTI12z3_exception = external constant ptr
@.str.10 = private unnamed_addr constant [19 x i8] c"internalize_term: \00", align 1
@.str.11 = private unnamed_addr constant [2 x i8] c"\0A\00", align 1

; Function Attrs: mustprogress nounwind uwtable
define linkonce_odr hidden void @_ZN21scoped_suspend_rlimitD2Ev(ptr noundef nonnull align 8 dereferenceable(9) %this) unnamed_addr #4 comdat align 2 {
entry:
  %this.addr = alloca ptr, align 8
  store ptr %this, ptr %this.addr, align 8
  %this1 = load ptr, ptr %this.addr, align 8
  %m_suspend = getelementptr inbounds %class.scoped_suspend_rlimit, ptr %this1, i32 0, i32 1
  %0 = load i8, ptr %m_suspend, align 8
  %tobool = trunc i8 %0 to i1
  %m_limit = getelementptr inbounds %class.scoped_suspend_rlimit, ptr %this1, i32 0, i32 0
  %1 = load ptr, ptr %m_limit, align 8
  %m_suspend2 = getelementptr inbounds %class.reslimit, ptr %1, i32 0, i32 1
  %frombool = zext i1 %tobool to i8
  store i8 %frombool, ptr %m_suspend2, align 4
  ret void
}

; Function Attrs: mustprogress nounwind uwtable
define linkonce_odr hidden void @_ZN21scoped_suspend_rlimitC2ER8reslimit(ptr noundef nonnull align 8 dereferenceable(9) %this, ptr noundef nonnull align 8 dereferenceable(40) %r) unnamed_addr #4 comdat align 2 {
entry:
  %this.addr = alloca ptr, align 8
  %r.addr = alloca ptr, align 8
  store ptr %this, ptr %this.addr, align 8
  store ptr %r, ptr %r.addr, align 8
  %this1 = load ptr, ptr %this.addr, align 8
  %m_limit = getelementptr inbounds %class.scoped_suspend_rlimit, ptr %this1, i32 0, i32 0
  %0 = load ptr, ptr %r.addr, align 8
  store ptr %0, ptr %m_limit, align 8
  %1 = load ptr, ptr %r.addr, align 8
  %m_suspend = getelementptr inbounds %class.reslimit, ptr %1, i32 0, i32 1
  %2 = load i8, ptr %m_suspend, align 4
  %tobool = trunc i8 %2 to i1
  %m_suspend2 = getelementptr inbounds %class.scoped_suspend_rlimit, ptr %this1, i32 0, i32 1
  %frombool = zext i1 %tobool to i8
  store i8 %frombool, ptr %m_suspend2, align 8
  %3 = load ptr, ptr %r.addr, align 8
  %m_suspend3 = getelementptr inbounds %class.reslimit, ptr %3, i32 0, i32 1
  store i8 1, ptr %m_suspend3, align 4
  ret void
}

; Function Attrs: mustprogress nounwind uwtable
define linkonce_odr hidden noundef nonnull align 8 dereferenceable(40) ptr @_ZN11ast_manager5limitEv(ptr noundef nonnull align 8 dereferenceable(976) %this) #4 comdat align 2 {
entry:
  %this.addr = alloca ptr, align 8
  store ptr %this, ptr %this.addr, align 8
  %this1 = load ptr, ptr %this.addr, align 8
  %m_limit = getelementptr inbounds %class.ast_manager, ptr %this1, i32 0, i32 0
  ret ptr %m_limit
}

; Function Attrs: mustprogress uwtable
define hidden noundef zeroext i1 @_ZN3smt9theory_bv16internalize_termEP3app(ptr noundef nonnull align 8 dereferenceable(1048) %this, ptr noundef %term) unnamed_addr #5 align 2 personality ptr @__gxx_personality_v0 {
entry:
  %this.addr = alloca ptr, align 8
  %term.addr = alloca ptr, align 8
  %_suspend_cancel = alloca %class.scoped_suspend_rlimit, align 8
  %exn.slot = alloca ptr, align 8
  %ehselector.slot = alloca i32, align 4
  %ex = alloca ptr, align 8
  store ptr %this, ptr %this.addr, align 8
  store ptr %term, ptr %term.addr, align 8
  %this1 = load ptr, ptr %this.addr, align 8
  %m = getelementptr inbounds %"class.smt::theory", ptr %this1, i32 0, i32 4
  %0 = load ptr, ptr %m, align 8
  %call = call noundef nonnull align 8 dereferenceable(40) ptr @_ZN11ast_manager5limitEv(ptr noundef nonnull align 8 dereferenceable(976) %0)
  call void @_ZN21scoped_suspend_rlimitC2ER8reslimit(ptr noundef nonnull align 8 dereferenceable(9) %_suspend_cancel, ptr noundef nonnull align 8 dereferenceable(40) %call)
  %1 = load ptr, ptr %term.addr, align 8
  %call2 = invoke noundef zeroext i1 @_ZN3smt9theory_bv21internalize_term_coreEP3app(ptr noundef nonnull align 8 dereferenceable(1048) %this1, ptr noundef %1)
          to label %invoke.cont unwind label %lpad

invoke.cont:                                      ; preds = %entry
  call void @_ZN21scoped_suspend_rlimitD2Ev(ptr noundef nonnull align 8 dereferenceable(9) %_suspend_cancel) #3
  ret i1 %call2

lpad:                                             ; preds = %entry
  %2 = landingpad { ptr, i32 }
          cleanup
          catch ptr @_ZTI12z3_exception
  %3 = extractvalue { ptr, i32 } %2, 0
  store ptr %3, ptr %exn.slot, align 8
  %4 = extractvalue { ptr, i32 } %2, 1
  store i32 %4, ptr %ehselector.slot, align 4
  br label %catch.dispatch

catch.dispatch:                                   ; preds = %lpad
  %sel = load i32, ptr %ehselector.slot, align 4
  %5 = call i32 @llvm.eh.typeid.for(ptr @_ZTI12z3_exception) #3
  %matches = icmp eq i32 %sel, %5
  br i1 %matches, label %catch, label %ehcleanup

catch:                                            ; preds = %catch.dispatch
  %exn = load ptr, ptr %exn.slot, align 8
  %6 = call ptr @__cxa_begin_catch(ptr %exn) #3
  store ptr %6, ptr %ex, align 8
  %call5 = invoke noundef i32 @_Z19get_verbosity_levelv()
          to label %invoke.cont4 unwind label %lpad3

invoke.cont4:                                     ; preds = %catch
  %cmp = icmp uge i32 %call5, 1
  br i1 %cmp, label %if.then, label %if.end33

if.then:                                          ; preds = %invoke.cont4
  %call7 = invoke noundef zeroext i1 @_Z11is_threadedv()
          to label %invoke.cont6 unwind label %lpad3

invoke.cont6:                                     ; preds = %if.then
  br i1 %call7, label %if.then8, label %if.else

if.then8:                                         ; preds = %invoke.cont6
  invoke void @_Z12verbose_lockv()
          to label %invoke.cont9 unwind label %lpad3

invoke.cont9:                                     ; preds = %if.then8
  %call11 = invoke noundef nonnull align 8 dereferenceable(8) ptr @_Z14verbose_streamv()
          to label %invoke.cont10 unwind label %lpad3

invoke.cont10:                                    ; preds = %invoke.cont9
  %call13 = invoke noundef nonnull align 8 dereferenceable(8) ptr @_ZStlsISt11char_traitsIcEERSt13basic_ostreamIcT_ES5_PKc(ptr noundef nonnull align 8 dereferenceable(8) %call11, ptr noundef @.str.10)
          to label %invoke.cont12 unwind label %lpad3

invoke.cont12:                                    ; preds = %invoke.cont10
  %7 = load ptr, ptr %ex, align 8
  %vtable = load ptr, ptr %7, align 8
  %vfn = getelementptr inbounds ptr, ptr %vtable, i64 2
  %8 = load ptr, ptr %vfn, align 8
  %call15 = invoke noundef ptr %8(ptr noundef nonnull align 8 dereferenceable(8) %7)
          to label %invoke.cont14 unwind label %lpad3

invoke.cont14:                                    ; preds = %invoke.cont12
  %call17 = invoke noundef nonnull align 8 dereferenceable(8) ptr @_ZStlsISt11char_traitsIcEERSt13basic_ostreamIcT_ES5_PKc(ptr noundef nonnull align 8 dereferenceable(8) %call13, ptr noundef %call15)
          to label %invoke.cont16 unwind label %lpad3

invoke.cont16:                                    ; preds = %invoke.cont14
  %call19 = invoke noundef nonnull align 8 dereferenceable(8) ptr @_ZStlsISt11char_traitsIcEERSt13basic_ostreamIcT_ES5_PKc(ptr noundef nonnull align 8 dereferenceable(8) %call17, ptr noundef @.str.11)
          to label %invoke.cont18 unwind label %lpad3

invoke.cont18:                                    ; preds = %invoke.cont16
  invoke void @_Z14verbose_unlockv()
          to label %invoke.cont20 unwind label %lpad3

invoke.cont20:                                    ; preds = %invoke.cont18
  br label %if.end

lpad3:                                            ; preds = %if.end33, %invoke.cont29, %invoke.cont27, %invoke.cont23, %invoke.cont21, %if.else, %invoke.cont18, %invoke.cont16, %invoke.cont14, %invoke.cont12, %invoke.cont10, %invoke.cont9, %if.then8, %if.then, %catch
  %9 = landingpad { ptr, i32 }
          cleanup
  %10 = extractvalue { ptr, i32 } %9, 0
  store ptr %10, ptr %exn.slot, align 8
  %11 = extractvalue { ptr, i32 } %9, 1
  store i32 %11, ptr %ehselector.slot, align 4
  invoke void @__cxa_end_catch()
          to label %invoke.cont34 unwind label %terminate.lpad

if.else:                                          ; preds = %invoke.cont6
  %call22 = invoke noundef nonnull align 8 dereferenceable(8) ptr @_Z14verbose_streamv()
          to label %invoke.cont21 unwind label %lpad3

invoke.cont21:                                    ; preds = %if.else
  %call24 = invoke noundef nonnull align 8 dereferenceable(8) ptr @_ZStlsISt11char_traitsIcEERSt13basic_ostreamIcT_ES5_PKc(ptr noundef nonnull align 8 dereferenceable(8) %call22, ptr noundef @.str.10)
          to label %invoke.cont23 unwind label %lpad3

invoke.cont23:                                    ; preds = %invoke.cont21
  %12 = load ptr, ptr %ex, align 8
  %vtable25 = load ptr, ptr %12, align 8
  %vfn26 = getelementptr inbounds ptr, ptr %vtable25, i64 2
  %13 = load ptr, ptr %vfn26, align 8
  %call28 = invoke noundef ptr %13(ptr noundef nonnull align 8 dereferenceable(8) %12)
          to label %invoke.cont27 unwind label %lpad3

invoke.cont27:                                    ; preds = %invoke.cont23
  %call30 = invoke noundef nonnull align 8 dereferenceable(8) ptr @_ZStlsISt11char_traitsIcEERSt13basic_ostreamIcT_ES5_PKc(ptr noundef nonnull align 8 dereferenceable(8) %call24, ptr noundef %call28)
          to label %invoke.cont29 unwind label %lpad3

invoke.cont29:                                    ; preds = %invoke.cont27
  %call32 = invoke noundef nonnull align 8 dereferenceable(8) ptr @_ZStlsISt11char_traitsIcEERSt13basic_ostreamIcT_ES5_PKc(ptr noundef nonnull align 8 dereferenceable(8) %call30, ptr noundef @.str.11)
          to label %invoke.cont31 unwind label %lpad3

invoke.cont31:                                    ; preds = %invoke.cont29
  br label %if.end

if.end:                                           ; preds = %invoke.cont31, %invoke.cont20
  br label %if.end33

if.end33:                                         ; preds = %if.end, %invoke.cont4
  invoke void @__cxa_rethrow() #17
          to label %unreachable unwind label %lpad3

invoke.cont34:                                    ; preds = %lpad3
  br label %ehcleanup

try.cont:                                         ; No predecessors!
  call void @llvm.trap()
  unreachable

ehcleanup:                                        ; preds = %invoke.cont34, %catch.dispatch
  call void @_ZN21scoped_suspend_rlimitD2Ev(ptr noundef nonnull align 8 dereferenceable(9) %_suspend_cancel) #3
  br label %eh.resume

eh.resume:                                        ; preds = %ehcleanup
  %exn35 = load ptr, ptr %exn.slot, align 8
  %sel36 = load i32, ptr %ehselector.slot, align 4
  %lpad.val = insertvalue { ptr, i32 } poison, ptr %exn35, 0
  %lpad.val37 = insertvalue { ptr, i32 } %lpad.val, i32 %sel36, 1
  resume { ptr, i32 } %lpad.val37

terminate.lpad:                                   ; preds = %lpad3
  %14 = landingpad { ptr, i32 }
          catch ptr null
  %15 = extractvalue { ptr, i32 } %14, 0
  call void @__clang_call_terminate(ptr %15) #16
  unreachable

unreachable:                                      ; preds = %if.end33
  unreachable
}