; Function Attrs: mustprogress uwtable
define hidden noundef zeroext i1 @_ZN3smt9theory_bv16internalize_termEP3app(ptr noundef nonnull align 8 dereferenceable(1048) %this, ptr noundef %term) unnamed_addr #3 align 2 personality ptr @__gxx_personality_v0 {
entry:
  %m = getelementptr inbounds i8, ptr %this, i64 24
  %0 = load ptr, ptr %m, align 8
  %m_suspend.i = getelementptr inbounds i8, ptr %0, i64 4
  %1 = load i8, ptr %m_suspend.i, align 4
  %2 = and i8 %1, 1
  store i8 1, ptr %m_suspend.i, align 4
  %call2 = invoke noundef zeroext i1 @_ZN3smt9theory_bv21internalize_term_coreEP3app(ptr noundef nonnull align 8 dereferenceable(1048) %this, ptr noundef %term)
          to label %invoke.cont unwind label %lpad

invoke.cont:                                      ; preds = %entry
  store i8 %2, ptr %m_suspend.i, align 4
  ret i1 %call2

lpad:                                             ; preds = %entry
  %3 = landingpad { ptr, i32 }
          cleanup
          catch ptr @_ZTI12z3_exception
  %4 = extractvalue { ptr, i32 } %3, 1
  %5 = tail call i32 @llvm.eh.typeid.for(ptr nonnull @_ZTI12z3_exception) #23
  %matches = icmp eq i32 %4, %5
  br i1 %matches, label %catch, label %ehcleanup

catch:                                            ; preds = %lpad
  %6 = extractvalue { ptr, i32 } %3, 0
  %7 = tail call ptr @__cxa_begin_catch(ptr %6) #23
  %call5 = invoke noundef i32 @_Z19get_verbosity_levelv()
          to label %invoke.cont4 unwind label %lpad3

invoke.cont4:                                     ; preds = %catch
  %cmp.not = icmp eq i32 %call5, 0
  br i1 %cmp.not, label %if.end33, label %if.then

if.then:                                          ; preds = %invoke.cont4
  %call7 = invoke noundef zeroext i1 @_Z11is_threadedv()
          to label %invoke.cont6 unwind label %lpad3

invoke.cont6:                                     ; preds = %if.then
  br i1 %call7, label %if.then8, label %if.else

if.then8:                                         ; preds = %invoke.cont6
  invoke void @_Z12verbose_lockv()
          to label %invoke.cont9 unwind label %lpad3

invoke.cont9:                                     ; preds = %if.then8
  %call11 = invoke noundef nonnull align 8 dereferenceable(8) ptr @_Z14verbose_streamv()
          to label %invoke.cont10 unwind label %lpad3

invoke.cont10:                                    ; preds = %invoke.cont9
  %call13 = invoke noundef nonnull align 8 dereferenceable(8) ptr @_ZStlsISt11char_traitsIcEERSt13basic_ostreamIcT_ES5_PKc(ptr noundef nonnull align 8 dereferenceable(8) %call11, ptr noundef nonnull @.str.10)
          to label %invoke.cont12 unwind label %lpad3

invoke.cont12:                                    ; preds = %invoke.cont10
  %vtable = load ptr, ptr %7, align 8
  %vfn = getelementptr inbounds i8, ptr %vtable, i64 16
  %8 = load ptr, ptr %vfn, align 8
  %call15 = invoke noundef ptr %8(ptr noundef nonnull align 8 dereferenceable(8) %7)
          to label %invoke.cont14 unwind label %lpad3

invoke.cont14:                                    ; preds = %invoke.cont12
  %call17 = invoke noundef nonnull align 8 dereferenceable(8) ptr @_ZStlsISt11char_traitsIcEERSt13basic_ostreamIcT_ES5_PKc(ptr noundef nonnull align 8 dereferenceable(8) %call13, ptr noundef %call15)
          to label %invoke.cont16 unwind label %lpad3

invoke.cont16:                                    ; preds = %invoke.cont14
  %call19 = invoke noundef nonnull align 8 dereferenceable(8) ptr @_ZStlsISt11char_traitsIcEERSt13basic_ostreamIcT_ES5_PKc(ptr noundef nonnull align 8 dereferenceable(8) %call17, ptr noundef nonnull @.str.11)
          to label %invoke.cont18 unwind label %lpad3

invoke.cont18:                                    ; preds = %invoke.cont16
  invoke void @_Z14verbose_unlockv()
          to label %if.end33 unwind label %lpad3

lpad3:                                            ; preds = %if.end33, %invoke.cont29, %invoke.cont27, %invoke.cont23, %invoke.cont21, %if.else, %invoke.cont18, %invoke.cont16, %invoke.cont14, %invoke.cont12, %invoke.cont10, %invoke.cont9, %if.then8, %if.then, %catch
  %9 = landingpad { ptr, i32 }
          cleanup
  invoke void @__cxa_end_catch()
          to label %ehcleanup unwind label %terminate.lpad

if.else:                                          ; preds = %invoke.cont6
  %call22 = invoke noundef nonnull align 8 dereferenceable(8) ptr @_Z14verbose_streamv()
          to label %invoke.cont21 unwind label %lpad3

invoke.cont21:                                    ; preds = %if.else
  %call24 = invoke noundef nonnull align 8 dereferenceable(8) ptr @_ZStlsISt11char_traitsIcEERSt13basic_ostreamIcT_ES5_PKc(ptr noundef nonnull align 8 dereferenceable(8) %call22, ptr noundef nonnull @.str.10)
          to label %invoke.cont23 unwind label %lpad3

invoke.cont23:                                    ; preds = %invoke.cont21
  %vtable25 = load ptr, ptr %7, align 8
  %vfn26 = getelementptr inbounds i8, ptr %vtable25, i64 16
  %10 = load ptr, ptr %vfn26, align 8
  %call28 = invoke noundef ptr %10(ptr noundef nonnull align 8 dereferenceable(8) %7)
          to label %invoke.cont27 unwind label %lpad3

invoke.cont27:                                    ; preds = %invoke.cont23
  %call30 = invoke noundef nonnull align 8 dereferenceable(8) ptr @_ZStlsISt11char_traitsIcEERSt13basic_ostreamIcT_ES5_PKc(ptr noundef nonnull align 8 dereferenceable(8) %call24, ptr noundef %call28)
          to label %invoke.cont29 unwind label %lpad3

invoke.cont29:                                    ; preds = %invoke.cont27
  %call32 = invoke noundef nonnull align 8 dereferenceable(8) ptr @_ZStlsISt11char_traitsIcEERSt13basic_ostreamIcT_ES5_PKc(ptr noundef nonnull align 8 dereferenceable(8) %call30, ptr noundef nonnull @.str.11)
          to label %if.end33 unwind label %lpad3

if.end33:                                         ; preds = %invoke.cont18, %invoke.cont29, %invoke.cont4
  invoke void @__cxa_rethrow() #25
          to label %unreachable unwind label %lpad3

ehcleanup:                                        ; preds = %lpad3, %lpad
  %lpad.val37.merged = phi { ptr, i32 } [ %9, %lpad3 ], [ %3, %lpad ]
  store i8 %2, ptr %m_suspend.i, align 4
  resume { ptr, i32 } %lpad.val37.merged

terminate.lpad:                                   ; preds = %lpad3
  %11 = landingpad { ptr, i32 }
          catch ptr null
  %12 = extractvalue { ptr, i32 } %11, 0
  tail call void @__clang_call_terminate(ptr %12) #24
  unreachable

unreachable:                                      ; preds = %if.end33
  unreachable
}